; ModuleID = '12/68.c'
source_filename = "12/68.c"
target datalayout = "e-m:e-p270:32:32-p271:32:32-p272:64:64-i64:64-f80:128-n8:16:32:64-S128"
target triple = "x86_64-pc-linux-gnu"

@.str = private unnamed_addr constant [3 x i8] c"%d\00", align 1
@.str.1 = private unnamed_addr constant [4 x i8] c"%d\0A\00", align 1

; Function Attrs: noinline nounwind uwtable
define dso_local i32 @main(i32 %0, i8** %1) #0 {
  %3 = alloca i32, align 4
  %4 = alloca i32, align 4
  %5 = alloca i8**, align 8
  %6 = alloca [100 x [15 x i32]], align 16
  %7 = alloca [15 x i32], align 16
  %8 = alloca [100 x i32], align 16
  %9 = alloca i32, align 4
  %10 = alloca i32, align 4
  %11 = alloca i32, align 4
  %12 = alloca i32, align 4
  %13 = alloca i32, align 4
  store i32 0, i32* %3, align 4
  store i32 %0, i32* %4, align 4
  store i8** %1, i8*** %5, align 8
  store i32 0, i32* %9, align 4
  br label %14

14:                                               ; preds = %58, %2
  store i32 0, i32* %10, align 4
  br label %15

15:                                               ; preds = %46, %14
  %16 = load i32, i32* %9, align 4
  %17 = sext i32 %16 to i64
  %18 = getelementptr inbounds [100 x [15 x i32]], [100 x [15 x i32]]* %6, i64 0, i64 %17
  %19 = load i32, i32* %10, align 4
  %20 = sext i32 %19 to i64
  %21 = getelementptr inbounds [15 x i32], [15 x i32]* %18, i64 0, i64 %20
  %22 = call i32 (i8*, ...) @__isoc99_scanf(i8* getelementptr inbounds ([3 x i8], [3 x i8]* @.str, i64 0, i64 0), i32* %21)
  %23 = load i32, i32* %9, align 4
  %24 = sext i32 %23 to i64
  %25 = getelementptr inbounds [100 x [15 x i32]], [100 x [15 x i32]]* %6, i64 0, i64 %24
  %26 = load i32, i32* %10, align 4
  %27 = sext i32 %26 to i64
  %28 = getelementptr inbounds [15 x i32], [15 x i32]* %25, i64 0, i64 %27
  %29 = load i32, i32* %28, align 4
  %30 = icmp eq i32 %29, 0
  br i1 %30, label %31, label %36

31:                                               ; preds = %15
  %32 = load i32, i32* %10, align 4
  %33 = load i32, i32* %9, align 4
  %34 = sext i32 %33 to i64
  %35 = getelementptr inbounds [15 x i32], [15 x i32]* %7, i64 0, i64 %34
  store i32 %32, i32* %35, align 4
  br label %49

36:                                               ; preds = %15
  %37 = load i32, i32* %9, align 4
  %38 = sext i32 %37 to i64
  %39 = getelementptr inbounds [100 x [15 x i32]], [100 x [15 x i32]]* %6, i64 0, i64 %38
  %40 = getelementptr inbounds [15 x i32], [15 x i32]* %39, i64 0, i64 0
  %41 = load i32, i32* %40, align 4
  %42 = icmp eq i32 %41, -1
  br i1 %42, label %43, label %44

43:                                               ; preds = %36
  br label %49

44:                                               ; preds = %36
  br label %45

45:                                               ; preds = %44
  br label %46

46:                                               ; preds = %45
  %47 = load i32, i32* %10, align 4
  %48 = add nsw i32 %47, 1
  store i32 %48, i32* %10, align 4
  br label %15

49:                                               ; preds = %43, %31
  %50 = load i32, i32* %9, align 4
  %51 = sext i32 %50 to i64
  %52 = getelementptr inbounds [100 x [15 x i32]], [100 x [15 x i32]]* %6, i64 0, i64 %51
  %53 = getelementptr inbounds [15 x i32], [15 x i32]* %52, i64 0, i64 0
  %54 = load i32, i32* %53, align 4
  %55 = icmp eq i32 %54, -1
  br i1 %55, label %56, label %57

56:                                               ; preds = %49
  br label %61

57:                                               ; preds = %49
  br label %58

58:                                               ; preds = %57
  %59 = load i32, i32* %9, align 4
  %60 = add nsw i32 %59, 1
  store i32 %60, i32* %9, align 4
  br label %14

61:                                               ; preds = %56
  store i32 0, i32* %11, align 4
  br label %62

62:                                               ; preds = %137, %61
  %63 = load i32, i32* %11, align 4
  %64 = load i32, i32* %9, align 4
  %65 = icmp slt i32 %63, %64
  br i1 %65, label %66, label %140

66:                                               ; preds = %62
  %67 = load i32, i32* %11, align 4
  %68 = sext i32 %67 to i64
  %69 = getelementptr inbounds [100 x i32], [100 x i32]* %8, i64 0, i64 %68
  store i32 0, i32* %69, align 4
  store i32 0, i32* %12, align 4
  br label %70

70:                                               ; preds = %133, %66
  %71 = load i32, i32* %12, align 4
  %72 = load i32, i32* %11, align 4
  %73 = sext i32 %72 to i64
  %74 = getelementptr inbounds [15 x i32], [15 x i32]* %7, i64 0, i64 %73
  %75 = load i32, i32* %74, align 4
  %76 = sub nsw i32 %75, 1
  %77 = icmp slt i32 %71, %76
  br i1 %77, label %78, label %136

78:                                               ; preds = %70
  %79 = load i32, i32* %12, align 4
  %80 = add nsw i32 %79, 1
  store i32 %80, i32* %13, align 4
  br label %81

81:                                               ; preds = %129, %78
  %82 = load i32, i32* %13, align 4
  %83 = load i32, i32* %11, align 4
  %84 = sext i32 %83 to i64
  %85 = getelementptr inbounds [15 x i32], [15 x i32]* %7, i64 0, i64 %84
  %86 = load i32, i32* %85, align 4
  %87 = icmp slt i32 %82, %86
  br i1 %87, label %88, label %132

88:                                               ; preds = %81
  %89 = load i32, i32* %11, align 4
  %90 = sext i32 %89 to i64
  %91 = getelementptr inbounds [100 x [15 x i32]], [100 x [15 x i32]]* %6, i64 0, i64 %90
  %92 = load i32, i32* %12, align 4
  %93 = sext i32 %92 to i64
  %94 = getelementptr inbounds [15 x i32], [15 x i32]* %91, i64 0, i64 %93
  %95 = load i32, i32* %94, align 4
  %96 = load i32, i32* %11, align 4
  %97 = sext i32 %96 to i64
  %98 = getelementptr inbounds [100 x [15 x i32]], [100 x [15 x i32]]* %6, i64 0, i64 %97
  %99 = load i32, i32* %13, align 4
  %100 = sext i32 %99 to i64
  %101 = getelementptr inbounds [15 x i32], [15 x i32]* %98, i64 0, i64 %100
  %102 = load i32, i32* %101, align 4
  %103 = mul nsw i32 2, %102
  %104 = icmp eq i32 %95, %103
  br i1 %104, label %122, label %105

105:                                              ; preds = %88
  %106 = load i32, i32* %11, align 4
  %107 = sext i32 %106 to i64
  %108 = getelementptr inbounds [100 x [15 x i32]], [100 x [15 x i32]]* %6, i64 0, i64 %107
  %109 = load i32, i32* %13, align 4
  %110 = sext i32 %109 to i64
  %111 = getelementptr inbounds [15 x i32], [15 x i32]* %108, i64 0, i64 %110
  %112 = load i32, i32* %111, align 4
  %113 = load i32, i32* %11, align 4
  %114 = sext i32 %113 to i64
  %115 = getelementptr inbounds [100 x [15 x i32]], [100 x [15 x i32]]* %6, i64 0, i64 %114
  %116 = load i32, i32* %12, align 4
  %117 = sext i32 %116 to i64
  %118 = getelementptr inbounds [15 x i32], [15 x i32]* %115, i64 0, i64 %117
  %119 = load i32, i32* %118, align 4
  %120 = mul nsw i32 2, %119
  %121 = icmp eq i32 %112, %120
  br i1 %121, label %122, label %128

122:                                              ; preds = %105, %88
  %123 = load i32, i32* %11, align 4
  %124 = sext i32 %123 to i64
  %125 = getelementptr inbounds [100 x i32], [100 x i32]* %8, i64 0, i64 %124
  %126 = load i32, i32* %125, align 4
  %127 = add nsw i32 %126, 1
  store i32 %127, i32* %125, align 4
  br label %128

128:                                              ; preds = %122, %105
  br label %129

129:                                              ; preds = %128
  %130 = load i32, i32* %13, align 4
  %131 = add nsw i32 %130, 1
  store i32 %131, i32* %13, align 4
  br label %81

132:                                              ; preds = %81
  br label %133

133:                                              ; preds = %132
  %134 = load i32, i32* %12, align 4
  %135 = add nsw i32 %134, 1
  store i32 %135, i32* %12, align 4
  br label %70

136:                                              ; preds = %70
  br label %137

137:                                              ; preds = %136
  %138 = load i32, i32* %11, align 4
  %139 = add nsw i32 %138, 1
  store i32 %139, i32* %11, align 4
  br label %62

140:                                              ; preds = %62
  store i32 0, i32* %11, align 4
  br label %141

141:                                              ; preds = %151, %140
  %142 = load i32, i32* %11, align 4
  %143 = load i32, i32* %9, align 4
  %144 = icmp slt i32 %142, %143
  br i1 %144, label %145, label %154

145:                                              ; preds = %141
  %146 = load i32, i32* %11, align 4
  %147 = sext i32 %146 to i64
  %148 = getelementptr inbounds [100 x i32], [100 x i32]* %8, i64 0, i64 %147
  %149 = load i32, i32* %148, align 4
  %150 = call i32 (i8*, ...) @printf(i8* getelementptr inbounds ([4 x i8], [4 x i8]* @.str.1, i64 0, i64 0), i32 %149)
  br label %151

151:                                              ; preds = %145
  %152 = load i32, i32* %11, align 4
  %153 = add nsw i32 %152, 1
  store i32 %153, i32* %11, align 4
  br label %141

154:                                              ; preds = %141
  ret i32 0
}

declare dso_local i32 @__isoc99_scanf(i8*, ...) #1

declare dso_local i32 @printf(i8*, ...) #1


!llvm.module.flags = !{!0}
!llvm.ident = !{!1}

!0 = !{i32 1, !"wchar_size", i32 4}
!1 = !{!"clang version 10.0.0-4ubuntu1 "}
